target datalayout = "e-m:e-p270:32:32-p271:32:32-p272:64:64-i64:64-i128:128-f80:128-n8:16:32:64-S128"
target triple = "x86_64-pc-linux-gnu"

%"class.icu_77::InputText" = type <{ ptr, i32, [4 x i8], ptr, i8, [7 x i8], ptr, ptr, i32, [4 x i8] }>

; Function Attrs: mustprogress nounwind uwtable
define internal noundef i32 @_ZN6icu_77L16adjustConfidenceEDsi(i16 noundef zeroext %0, i32 noundef %1) #1 {
  %3 = alloca i16, align 2
  %4 = alloca i32, align 4
  store i16 %0, ptr %3, align 2, !tbaa !23
  store i32 %1, ptr %4, align 4, !tbaa !20
  %5 = load i16, ptr %3, align 2, !tbaa !23
  %6 = zext i16 %5 to i32
  %7 = icmp eq i32 %6, 0
  br i1 %7, label %8, label %11

8:                                                ; preds = %2
  %9 = load i32, ptr %4, align 4, !tbaa !20
  %10 = sub nsw i32 %9, 10
  store i32 %10, ptr %4, align 4, !tbaa !20
  br label %27

11:                                               ; preds = %2
  %12 = load i16, ptr %3, align 2, !tbaa !23
  %13 = zext i16 %12 to i32
  %14 = icmp sge i32 %13, 32
  br i1 %14, label %15, label %19

15:                                               ; preds = %11
  %16 = load i16, ptr %3, align 2, !tbaa !23
  %17 = zext i16 %16 to i32
  %18 = icmp sle i32 %17, 255
  br i1 %18, label %23, label %19

19:                                               ; preds = %15, %11
  %20 = load i16, ptr %3, align 2, !tbaa !23
  %21 = zext i16 %20 to i32
  %22 = icmp eq i32 %21, 10
  br i1 %22, label %23, label %26

23:                                               ; preds = %19, %15
  %24 = load i32, ptr %4, align 4, !tbaa !20
  %25 = add nsw i32 %24, 10
  store i32 %25, ptr %4, align 4, !tbaa !20
  br label %26

26:                                               ; preds = %23, %19
  br label %27

27:                                               ; preds = %26, %8
  %28 = load i32, ptr %4, align 4, !tbaa !20
  %29 = icmp slt i32 %28, 0
  br i1 %29, label %30, label %31

30:                                               ; preds = %27
  store i32 0, ptr %4, align 4, !tbaa !20
  br label %36

31:                                               ; preds = %27
  %32 = load i32, ptr %4, align 4, !tbaa !20
  %33 = icmp sgt i32 %32, 100
  br i1 %33, label %34, label %35

34:                                               ; preds = %31
  store i32 100, ptr %4, align 4, !tbaa !20
  br label %35

35:                                               ; preds = %34, %31
  br label %36

36:                                               ; preds = %35, %30
  %37 = load i32, ptr %4, align 4, !tbaa !20
  ret i32 %37
}

; Function Attrs: mustprogress uwtable
define noundef signext i8 @_ZNK6icu_7722CharsetRecog_UTF_16_LE5matchEPNS_9InputTextEPNS_12CharsetMatchE(ptr noundef nonnull align 8 dereferenceable(8) %0, ptr noundef %1, ptr noundef %2) unnamed_addr #3 align 2 {
  %4 = alloca ptr, align 8
  %5 = alloca ptr, align 8
  %6 = alloca ptr, align 8
  %7 = alloca ptr, align 8
  %8 = alloca i32, align 4
  %9 = alloca i32, align 4
  %10 = alloca i32, align 4
  %11 = alloca i32, align 4
  %12 = alloca i32, align 4
  %13 = alloca i16, align 2
  store ptr %0, ptr %4, align 8, !tbaa !27
  store ptr %1, ptr %5, align 8, !tbaa !10
  store ptr %2, ptr %6, align 8, !tbaa !12
  %14 = load ptr, ptr %4, align 8
  call void @llvm.lifetime.start.p0(i64 8, ptr %7) #6
  %15 = load ptr, ptr %5, align 8, !tbaa !10
  %16 = getelementptr inbounds nuw %"class.icu_77::InputText", ptr %15, i32 0, i32 7
  %17 = load ptr, ptr %16, align 8, !tbaa !14
  store ptr %17, ptr %7, align 8, !tbaa !19
  call void @llvm.lifetime.start.p0(i64 4, ptr %8) #6
  store i32 10, ptr %8, align 4, !tbaa !20
  call void @llvm.lifetime.start.p0(i64 4, ptr %9) #6
  %18 = load ptr, ptr %5, align 8, !tbaa !10
  %19 = getelementptr inbounds nuw %"class.icu_77::InputText", ptr %18, i32 0, i32 8
  %20 = load i32, ptr %19, align 8, !tbaa !21
  store i32 %20, ptr %9, align 4, !tbaa !20
  call void @llvm.lifetime.start.p0(i64 4, ptr %10) #6
  %21 = load i32, ptr %9, align 4, !tbaa !20
  %22 = icmp sgt i32 %21, 30
  br i1 %22, label %23, label %24

23:                                               ; preds = %3
  br label %26

24:                                               ; preds = %3
  %25 = load i32, ptr %9, align 4, !tbaa !20
  br label %26

26:                                               ; preds = %24, %23
  %27 = phi i32 [ 30, %23 ], [ %25, %24 ]
  store i32 %27, ptr %10, align 4, !tbaa !20
  call void @llvm.lifetime.start.p0(i64 4, ptr %11) #6
  store i32 0, ptr %11, align 4, !tbaa !20
  br label %28

28:                                               ; preds = %88, %26
  %29 = load i32, ptr %11, align 4, !tbaa !20
  %30 = load i32, ptr %10, align 4, !tbaa !20
  %31 = sub nsw i32 %30, 1
  %32 = icmp slt i32 %29, %31
  br i1 %32, label %34, label %33

33:                                               ; preds = %28
  store i32 2, ptr %12, align 4
  br label %91

34:                                               ; preds = %28
  call void @llvm.lifetime.start.p0(i64 2, ptr %13) #6
  %35 = load ptr, ptr %7, align 8, !tbaa !19
  %36 = load i32, ptr %11, align 4, !tbaa !20
  %37 = sext i32 %36 to i64
  %38 = getelementptr inbounds i8, ptr %35, i64 %37
  %39 = load i8, ptr %38, align 1, !tbaa !22
  %40 = zext i8 %39 to i32
  %41 = load ptr, ptr %7, align 8, !tbaa !19
  %42 = load i32, ptr %11, align 4, !tbaa !20
  %43 = add nsw i32 %42, 1
  %44 = sext i32 %43 to i64
  %45 = getelementptr inbounds i8, ptr %41, i64 %44
  %46 = load i8, ptr %45, align 1, !tbaa !22
  %47 = zext i8 %46 to i32
  %48 = shl i32 %47, 8
  %49 = or i32 %40, %48
  %50 = trunc i32 %49 to i16
  store i16 %50, ptr %13, align 2, !tbaa !23
  %51 = load i32, ptr %11, align 4, !tbaa !20
  %52 = icmp eq i32 %51, 0
  br i1 %52, label %53, label %74

53:                                               ; preds = %34
  %54 = load i16, ptr %13, align 2, !tbaa !23
  %55 = zext i16 %54 to i32
  %56 = icmp eq i32 %55, 65279
  br i1 %56, label %57, label %74

57:                                               ; preds = %53
  store i32 100, ptr %8, align 4, !tbaa !20
  %58 = load i32, ptr %9, align 4, !tbaa !20
  %59 = icmp sge i32 %58, 4
  br i1 %59, label %60, label %73

60:                                               ; preds = %57
  %61 = load ptr, ptr %7, align 8, !tbaa !19
  %62 = getelementptr inbounds i8, ptr %61, i64 2
  %63 = load i8, ptr %62, align 1, !tbaa !22
  %64 = zext i8 %63 to i32
  %65 = icmp eq i32 %64, 0
  br i1 %65, label %66, label %73

66:                                               ; preds = %60
  %67 = load ptr, ptr %7, align 8, !tbaa !19
  %68 = getelementptr inbounds i8, ptr %67, i64 3
  %69 = load i8, ptr %68, align 1, !tbaa !22
  %70 = zext i8 %69 to i32
  %71 = icmp eq i32 %70, 0
  br i1 %71, label %72, label %73

72:                                               ; preds = %66
  store i32 0, ptr %8, align 4, !tbaa !20
  br label %73

73:                                               ; preds = %72, %66, %60, %57
  store i32 2, ptr %12, align 4
  br label %85

74:                                               ; preds = %53, %34
  %75 = load i16, ptr %13, align 2, !tbaa !23
  %76 = load i32, ptr %8, align 4, !tbaa !20
  %77 = call noundef i32 @_ZN6icu_77L16adjustConfidenceEDsi(i16 noundef zeroext %75, i32 noundef %76)
  store i32 %77, ptr %8, align 4, !tbaa !20
  %78 = load i32, ptr %8, align 4, !tbaa !20
  %79 = icmp eq i32 %78, 0
  br i1 %79, label %83, label %80

80:                                               ; preds = %74
  %81 = load i32, ptr %8, align 4, !tbaa !20
  %82 = icmp eq i32 %81, 100
  br i1 %82, label %83, label %84

83:                                               ; preds = %80, %74
  store i32 2, ptr %12, align 4
  br label %85

84:                                               ; preds = %80
  store i32 0, ptr %12, align 4
  br label %85

85:                                               ; preds = %84, %83, %73
  call void @llvm.lifetime.end.p0(i64 2, ptr %13) #6
  %86 = load i32, ptr %12, align 4
  switch i32 %86, label %91 [
    i32 0, label %87
  ]

87:                                               ; preds = %85
  br label %88

88:                                               ; preds = %87
  %89 = load i32, ptr %11, align 4, !tbaa !20
  %90 = add nsw i32 %89, 2
  store i32 %90, ptr %11, align 4, !tbaa !20
  br label %28, !llvm.loop !29

91:                                               ; preds = %85, %33
  call void @llvm.lifetime.end.p0(i64 4, ptr %11) #6
  br label %92

92:                                               ; preds = %91
  %93 = load i32, ptr %10, align 4, !tbaa !20
  %94 = icmp slt i32 %93, 4
  br i1 %94, label %95, label %99

95:                                               ; preds = %92
  %96 = load i32, ptr %8, align 4, !tbaa !20
  %97 = icmp slt i32 %96, 100
  br i1 %97, label %98, label %99

98:                                               ; preds = %95
  store i32 0, ptr %8, align 4, !tbaa !20
  br label %99

99:                                               ; preds = %98, %95, %92
  %100 = load ptr, ptr %6, align 8, !tbaa !12
  %101 = load ptr, ptr %5, align 8, !tbaa !10
  %102 = load i32, ptr %8, align 4, !tbaa !20
  call void @_ZN6icu_7712CharsetMatch3setEPNS_9InputTextEPKNS_17CharsetRecognizerEiPKcS7_(ptr noundef nonnull align 8 dereferenceable(32) %100, ptr noundef %101, ptr noundef %14, i32 noundef %102, ptr noundef null, ptr noundef null)
  %103 = load i32, ptr %8, align 4, !tbaa !20
  %104 = icmp sgt i32 %103, 0
  %105 = zext i1 %104 to i8
  store i32 1, ptr %12, align 4
  call void @llvm.lifetime.end.p0(i64 4, ptr %10) #6
  call void @llvm.lifetime.end.p0(i64 4, ptr %9) #6
  call void @llvm.lifetime.end.p0(i64 4, ptr %8) #6
  call void @llvm.lifetime.end.p0(i64 8, ptr %7) #6
  ret i8 %105
}