; Function Attrs: mustprogress uwtable
define noundef signext range(i8 0, 2) i8 @_ZNK6icu_7722CharsetRecog_UTF_16_LE5matchEPNS_9InputTextEPNS_12CharsetMatchE(ptr noundef nonnull align 8 dereferenceable(8) %0, ptr noundef %1, ptr noundef %2) unnamed_addr #5 align 2 {
  %4 = getelementptr inbounds nuw i8, ptr %1, i64 40
  %5 = load ptr, ptr %4, align 8, !tbaa !3
  %6 = getelementptr inbounds nuw i8, ptr %1, i64 48
  %7 = load i32, ptr %6, align 8, !tbaa !11
  %8 = tail call i32 @llvm.smin.i32(i32 %7, i32 30)
  %9 = add nsw i32 %8, -1
  %10 = icmp sgt i32 %7, 1
  br i1 %10, label %.lr.ph, label %.thread

.lr.ph:                                           ; preds = %3, %40
  %indvars.iv = phi i64 [ %indvars.iv.next, %40 ], [ 0, %3 ]
  %.039 = phi i32 [ %.1.i, %40 ], [ 10, %3 ]
  %11 = getelementptr inbounds nuw i8, ptr %5, i64 %indvars.iv
  %12 = load i8, ptr %11, align 1, !tbaa !12
  %13 = zext i8 %12 to i16
  %14 = or disjoint i64 %indvars.iv, 1
  %15 = getelementptr inbounds nuw i8, ptr %5, i64 %14
  %16 = load i8, ptr %15, align 1, !tbaa !12
  %17 = zext i8 %16 to i16
  %18 = shl nuw i16 %17, 8
  %19 = or disjoint i16 %18, %13
  %20 = icmp eq i64 %indvars.iv, 0
  %21 = icmp eq i16 %19, -257
  %or.cond = select i1 %20, i1 %21, i1 false
  br i1 %or.cond, label %22, label %32

22:                                               ; preds = %.lr.ph
  %23 = icmp sgt i32 %7, 3
  br i1 %23, label %24, label %.thread

24:                                               ; preds = %22
  %25 = getelementptr inbounds nuw i8, ptr %5, i64 2
  %26 = load i8, ptr %25, align 1, !tbaa !12
  %27 = icmp eq i8 %26, 0
  br i1 %27, label %28, label %.thread

28:                                               ; preds = %24
  %29 = getelementptr inbounds nuw i8, ptr %5, i64 3
  %30 = load i8, ptr %29, align 1, !tbaa !12
  %31 = icmp eq i8 %30, 0
  %spec.select = select i1 %31, i32 0, i32 100
  br label %.thread

32:                                               ; preds = %.lr.ph
  %33 = icmp eq i16 %19, 0
  br i1 %33, label %34, label %36

34:                                               ; preds = %32
  %35 = add nsw i32 %.039, -10
  br label %_ZN6icu_77L16adjustConfidenceEDsi.exit

36:                                               ; preds = %32
  %37 = add i16 %19, -32
  %or.cond.i = icmp ult i16 %37, 224
  %38 = icmp eq i16 %19, 10
  %or.cond5.i = or i1 %38, %or.cond.i
  %39 = add nuw nsw i32 %.039, 10
  %spec.select.i = select i1 %or.cond5.i, i32 %39, i32 %.039
  br label %_ZN6icu_77L16adjustConfidenceEDsi.exit

_ZN6icu_77L16adjustConfidenceEDsi.exit:           ; preds = %34, %36
  %.0.i = phi i32 [ %35, %34 ], [ %spec.select.i, %36 ]
  %spec.store.select.i = tail call i32 @llvm.smin.i32(i32 %.0.i, i32 100)
  %.1.i = tail call noundef range(i32 0, 101) i32 @llvm.smax.i32(i32 %spec.store.select.i, i32 0)
  switch i32 %.1.i, label %40 [
    i32 100, label %.thread
    i32 0, label %.thread
  ]

40:                                               ; preds = %_ZN6icu_77L16adjustConfidenceEDsi.exit
  %indvars.iv.next = add nuw nsw i64 %indvars.iv, 2
  %41 = trunc nuw i64 %indvars.iv.next to i32
  %42 = icmp sgt i32 %9, %41
  br i1 %42, label %.lr.ph, label %.thread, !llvm.loop !15

.thread:                                          ; preds = %40, %_ZN6icu_77L16adjustConfidenceEDsi.exit, %_ZN6icu_77L16adjustConfidenceEDsi.exit, %3, %22, %24, %28
  %.1 = phi i32 [ %spec.select, %28 ], [ 100, %22 ], [ 100, %24 ], [ 10, %3 ], [ %.1.i, %_ZN6icu_77L16adjustConfidenceEDsi.exit ], [ %.1.i, %_ZN6icu_77L16adjustConfidenceEDsi.exit ], [ %.1.i, %40 ]
  %43 = icmp slt i32 %7, 4
  %44 = icmp samesign ult i32 %.1, 100
  %or.cond6 = and i1 %43, %44
  %spec.store.select = select i1 %or.cond6, i32 0, i32 %.1
  tail call void @_ZN6icu_7712CharsetMatch3setEPNS_9InputTextEPKNS_17CharsetRecognizerEiPKcS7_(ptr noundef nonnull align 8 dereferenceable(32) %2, ptr noundef %1, ptr noundef nonnull %0, i32 noundef %spec.store.select, ptr noundef null, ptr noundef null)
  %45 = icmp ne i32 %spec.store.select, 0
  %46 = zext i1 %45 to i8
  ret i8 %46
}